
typecases_debug_O0.bin:     file format elf64-x86-64


Disassembly of section .init:

0000000000001000 <_init>:
    1000:	f3 0f 1e fa          	endbr64 
    1004:	48 83 ec 08          	sub    $0x8,%rsp
    1008:	48 8b 05 d9 2f 00 00 	mov    0x2fd9(%rip),%rax        # 3fe8 <__gmon_start__>
    100f:	48 85 c0             	test   %rax,%rax
    1012:	74 02                	je     1016 <_init+0x16>
    1014:	ff d0                	callq  *%rax
    1016:	48 83 c4 08          	add    $0x8,%rsp
    101a:	c3                   	retq   

Disassembly of section .plt:

0000000000001020 <.plt>:
    1020:	ff 35 62 2f 00 00    	pushq  0x2f62(%rip)        # 3f88 <_GLOBAL_OFFSET_TABLE_+0x8>
    1026:	f2 ff 25 63 2f 00 00 	bnd jmpq *0x2f63(%rip)        # 3f90 <_GLOBAL_OFFSET_TABLE_+0x10>
    102d:	0f 1f 00             	nopl   (%rax)
    1030:	f3 0f 1e fa          	endbr64 
    1034:	68 00 00 00 00       	pushq  $0x0
    1039:	f2 e9 e1 ff ff ff    	bnd jmpq 1020 <.plt>
    103f:	90                   	nop
    1040:	f3 0f 1e fa          	endbr64 
    1044:	68 01 00 00 00       	pushq  $0x1
    1049:	f2 e9 d1 ff ff ff    	bnd jmpq 1020 <.plt>
    104f:	90                   	nop
    1050:	f3 0f 1e fa          	endbr64 
    1054:	68 02 00 00 00       	pushq  $0x2
    1059:	f2 e9 c1 ff ff ff    	bnd jmpq 1020 <.plt>
    105f:	90                   	nop
    1060:	f3 0f 1e fa          	endbr64 
    1064:	68 03 00 00 00       	pushq  $0x3
    1069:	f2 e9 b1 ff ff ff    	bnd jmpq 1020 <.plt>
    106f:	90                   	nop
    1070:	f3 0f 1e fa          	endbr64 
    1074:	68 04 00 00 00       	pushq  $0x4
    1079:	f2 e9 a1 ff ff ff    	bnd jmpq 1020 <.plt>
    107f:	90                   	nop
    1080:	f3 0f 1e fa          	endbr64 
    1084:	68 05 00 00 00       	pushq  $0x5
    1089:	f2 e9 91 ff ff ff    	bnd jmpq 1020 <.plt>
    108f:	90                   	nop
    1090:	f3 0f 1e fa          	endbr64 
    1094:	68 06 00 00 00       	pushq  $0x6
    1099:	f2 e9 81 ff ff ff    	bnd jmpq 1020 <.plt>
    109f:	90                   	nop
    10a0:	f3 0f 1e fa          	endbr64 
    10a4:	68 07 00 00 00       	pushq  $0x7
    10a9:	f2 e9 71 ff ff ff    	bnd jmpq 1020 <.plt>
    10af:	90                   	nop

Disassembly of section .plt.got:

00000000000010b0 <__cxa_finalize@plt>:
    10b0:	f3 0f 1e fa          	endbr64 
    10b4:	f2 ff 25 3d 2f 00 00 	bnd jmpq *0x2f3d(%rip)        # 3ff8 <__cxa_finalize@GLIBC_2.2.5>
    10bb:	0f 1f 44 00 00       	nopl   0x0(%rax,%rax,1)

Disassembly of section .plt.sec:

00000000000010c0 <free@plt>:
    10c0:	f3 0f 1e fa          	endbr64 
    10c4:	f2 ff 25 cd 2e 00 00 	bnd jmpq *0x2ecd(%rip)        # 3f98 <free@GLIBC_2.2.5>
    10cb:	0f 1f 44 00 00       	nopl   0x0(%rax,%rax,1)

00000000000010d0 <strcpy@plt>:
    10d0:	f3 0f 1e fa          	endbr64 
    10d4:	f2 ff 25 c5 2e 00 00 	bnd jmpq *0x2ec5(%rip)        # 3fa0 <strcpy@GLIBC_2.2.5>
    10db:	0f 1f 44 00 00       	nopl   0x0(%rax,%rax,1)

00000000000010e0 <strlen@plt>:
    10e0:	f3 0f 1e fa          	endbr64 
    10e4:	f2 ff 25 bd 2e 00 00 	bnd jmpq *0x2ebd(%rip)        # 3fa8 <strlen@GLIBC_2.2.5>
    10eb:	0f 1f 44 00 00       	nopl   0x0(%rax,%rax,1)

00000000000010f0 <__stack_chk_fail@plt>:
    10f0:	f3 0f 1e fa          	endbr64 
    10f4:	f2 ff 25 b5 2e 00 00 	bnd jmpq *0x2eb5(%rip)        # 3fb0 <__stack_chk_fail@GLIBC_2.4>
    10fb:	0f 1f 44 00 00       	nopl   0x0(%rax,%rax,1)

0000000000001100 <printf@plt>:
    1100:	f3 0f 1e fa          	endbr64 
    1104:	f2 ff 25 ad 2e 00 00 	bnd jmpq *0x2ead(%rip)        # 3fb8 <printf@GLIBC_2.2.5>
    110b:	0f 1f 44 00 00       	nopl   0x0(%rax,%rax,1)

0000000000001110 <malloc@plt>:
    1110:	f3 0f 1e fa          	endbr64 
    1114:	f2 ff 25 a5 2e 00 00 	bnd jmpq *0x2ea5(%rip)        # 3fc0 <malloc@GLIBC_2.2.5>
    111b:	0f 1f 44 00 00       	nopl   0x0(%rax,%rax,1)

0000000000001120 <atoi@plt>:
    1120:	f3 0f 1e fa          	endbr64 
    1124:	f2 ff 25 9d 2e 00 00 	bnd jmpq *0x2e9d(%rip)        # 3fc8 <atoi@GLIBC_2.2.5>
    112b:	0f 1f 44 00 00       	nopl   0x0(%rax,%rax,1)

0000000000001130 <exit@plt>:
    1130:	f3 0f 1e fa          	endbr64 
    1134:	f2 ff 25 95 2e 00 00 	bnd jmpq *0x2e95(%rip)        # 3fd0 <exit@GLIBC_2.2.5>
    113b:	0f 1f 44 00 00       	nopl   0x0(%rax,%rax,1)

Disassembly of section .text:

0000000000001140 <_start>:
    1140:	f3 0f 1e fa          	endbr64 
    1144:	31 ed                	xor    %ebp,%ebp
    1146:	49 89 d1             	mov    %rdx,%r9
    1149:	5e                   	pop    %rsi
    114a:	48 89 e2             	mov    %rsp,%rdx
    114d:	48 83 e4 f0          	and    $0xfffffffffffffff0,%rsp
    1151:	50                   	push   %rax
    1152:	54                   	push   %rsp
    1153:	4c 8d 05 c6 04 00 00 	lea    0x4c6(%rip),%r8        # 1620 <__libc_csu_fini>
    115a:	48 8d 0d 4f 04 00 00 	lea    0x44f(%rip),%rcx        # 15b0 <__libc_csu_init>
    1161:	48 8d 3d 65 01 00 00 	lea    0x165(%rip),%rdi        # 12cd <main>
    1168:	ff 15 72 2e 00 00    	callq  *0x2e72(%rip)        # 3fe0 <__libc_start_main@GLIBC_2.2.5>
    116e:	f4                   	hlt    
    116f:	90                   	nop

0000000000001170 <deregister_tm_clones>:
    1170:	48 8d 3d 99 2e 00 00 	lea    0x2e99(%rip),%rdi        # 4010 <__TMC_END__>
    1177:	48 8d 05 92 2e 00 00 	lea    0x2e92(%rip),%rax        # 4010 <__TMC_END__>
    117e:	48 39 f8             	cmp    %rdi,%rax
    1181:	74 15                	je     1198 <deregister_tm_clones+0x28>
    1183:	48 8b 05 4e 2e 00 00 	mov    0x2e4e(%rip),%rax        # 3fd8 <_ITM_deregisterTMCloneTable>
    118a:	48 85 c0             	test   %rax,%rax
    118d:	74 09                	je     1198 <deregister_tm_clones+0x28>
    118f:	ff e0                	jmpq   *%rax
    1191:	0f 1f 80 00 00 00 00 	nopl   0x0(%rax)
    1198:	c3                   	retq   
    1199:	0f 1f 80 00 00 00 00 	nopl   0x0(%rax)

00000000000011a0 <register_tm_clones>:
    11a0:	48 8d 3d 69 2e 00 00 	lea    0x2e69(%rip),%rdi        # 4010 <__TMC_END__>
    11a7:	48 8d 35 62 2e 00 00 	lea    0x2e62(%rip),%rsi        # 4010 <__TMC_END__>
    11ae:	48 29 fe             	sub    %rdi,%rsi
    11b1:	48 89 f0             	mov    %rsi,%rax
    11b4:	48 c1 ee 3f          	shr    $0x3f,%rsi
    11b8:	48 c1 f8 03          	sar    $0x3,%rax
    11bc:	48 01 c6             	add    %rax,%rsi
    11bf:	48 d1 fe             	sar    %rsi
    11c2:	74 14                	je     11d8 <register_tm_clones+0x38>
    11c4:	48 8b 05 25 2e 00 00 	mov    0x2e25(%rip),%rax        # 3ff0 <_ITM_registerTMCloneTable>
    11cb:	48 85 c0             	test   %rax,%rax
    11ce:	74 08                	je     11d8 <register_tm_clones+0x38>
    11d0:	ff e0                	jmpq   *%rax
    11d2:	66 0f 1f 44 00 00    	nopw   0x0(%rax,%rax,1)
    11d8:	c3                   	retq   
    11d9:	0f 1f 80 00 00 00 00 	nopl   0x0(%rax)

00000000000011e0 <__do_global_dtors_aux>:
    11e0:	f3 0f 1e fa          	endbr64 
    11e4:	80 3d 25 2e 00 00 00 	cmpb   $0x0,0x2e25(%rip)        # 4010 <__TMC_END__>
    11eb:	75 2b                	jne    1218 <__do_global_dtors_aux+0x38>
    11ed:	55                   	push   %rbp
    11ee:	48 83 3d 02 2e 00 00 	cmpq   $0x0,0x2e02(%rip)        # 3ff8 <__cxa_finalize@GLIBC_2.2.5>
    11f5:	00 
    11f6:	48 89 e5             	mov    %rsp,%rbp
    11f9:	74 0c                	je     1207 <__do_global_dtors_aux+0x27>
    11fb:	48 8b 3d 06 2e 00 00 	mov    0x2e06(%rip),%rdi        # 4008 <__dso_handle>
    1202:	e8 a9 fe ff ff       	callq  10b0 <__cxa_finalize@plt>
    1207:	e8 64 ff ff ff       	callq  1170 <deregister_tm_clones>
    120c:	c6 05 fd 2d 00 00 01 	movb   $0x1,0x2dfd(%rip)        # 4010 <__TMC_END__>
    1213:	5d                   	pop    %rbp
    1214:	c3                   	retq   
    1215:	0f 1f 00             	nopl   (%rax)
    1218:	c3                   	retq   
    1219:	0f 1f 80 00 00 00 00 	nopl   0x0(%rax)

0000000000001220 <frame_dummy>:
    1220:	f3 0f 1e fa          	endbr64 
    1224:	e9 77 ff ff ff       	jmpq   11a0 <register_tm_clones>

0000000000001229 <hello>:
    1229:	f3 0f 1e fa          	endbr64 
    122d:	55                   	push   %rbp
    122e:	48 89 e5             	mov    %rsp,%rbp
    1231:	48 83 ec 10          	sub    $0x10,%rsp
    1235:	89 7d fc             	mov    %edi,-0x4(%rbp)
    1238:	8b 45 fc             	mov    -0x4(%rbp),%eax
    123b:	89 c6                	mov    %eax,%esi
    123d:	48 8d 3d c4 0d 00 00 	lea    0xdc4(%rip),%rdi        # 2008 <_IO_stdin_used+0x8>
    1244:	b8 00 00 00 00       	mov    $0x0,%eax
    1249:	e8 b2 fe ff ff       	callq  1100 <printf@plt>
    124e:	90                   	nop
    124f:	c9                   	leaveq 
    1250:	c3                   	retq   

0000000000001251 <hello2>:
    1251:	f3 0f 1e fa          	endbr64 
    1255:	55                   	push   %rbp
    1256:	48 89 e5             	mov    %rsp,%rbp
    1259:	48 83 ec 10          	sub    $0x10,%rsp
    125d:	89 7d fc             	mov    %edi,-0x4(%rbp)
    1260:	8b 45 fc             	mov    -0x4(%rbp),%eax
    1263:	89 c6                	mov    %eax,%esi
    1265:	48 8d 3d bc 0d 00 00 	lea    0xdbc(%rip),%rdi        # 2028 <_IO_stdin_used+0x28>
    126c:	b8 00 00 00 00       	mov    $0x0,%eax
    1271:	e8 8a fe ff ff       	callq  1100 <printf@plt>
    1276:	90                   	nop
    1277:	c9                   	leaveq 
    1278:	c3                   	retq   

0000000000001279 <myrecfunc>:
    1279:	f3 0f 1e fa          	endbr64 
    127d:	55                   	push   %rbp
    127e:	48 89 e5             	mov    %rsp,%rbp
    1281:	53                   	push   %rbx
    1282:	48 83 ec 28          	sub    $0x28,%rsp
    1286:	48 89 7d d8          	mov    %rdi,-0x28(%rbp)
    128a:	48 83 7d d8 00       	cmpq   $0x0,-0x28(%rbp)
    128f:	75 07                	jne    1298 <myrecfunc+0x1f>
    1291:	b8 00 00 00 00       	mov    $0x0,%eax
    1296:	eb 2e                	jmp    12c6 <myrecfunc+0x4d>
    1298:	48 8b 45 d8          	mov    -0x28(%rbp),%rax
    129c:	8b 10                	mov    (%rax),%edx
    129e:	48 8b 45 d8          	mov    -0x28(%rbp),%rax
    12a2:	8b 40 04             	mov    0x4(%rax),%eax
    12a5:	01 c2                	add    %eax,%edx
    12a7:	48 8b 45 d8          	mov    -0x28(%rbp),%rax
    12ab:	8b 40 08             	mov    0x8(%rax),%eax
    12ae:	8d 1c 02             	lea    (%rdx,%rax,1),%ebx
    12b1:	48 8b 45 d8          	mov    -0x28(%rbp),%rax
    12b5:	48 8b 40 10          	mov    0x10(%rax),%rax
    12b9:	48 89 c7             	mov    %rax,%rdi
    12bc:	e8 b8 ff ff ff       	callq  1279 <myrecfunc>
    12c1:	01 d8                	add    %ebx,%eax
    12c3:	89 45 ec             	mov    %eax,-0x14(%rbp)
    12c6:	48 83 c4 28          	add    $0x28,%rsp
    12ca:	5b                   	pop    %rbx
    12cb:	5d                   	pop    %rbp
    12cc:	c3                   	retq   

00000000000012cd <main>:
    12cd:	f3 0f 1e fa          	endbr64 
    12d1:	55                   	push   %rbp
    12d2:	48 89 e5             	mov    %rsp,%rbp
    12d5:	48 81 ec 80 02 00 00 	sub    $0x280,%rsp
    12dc:	89 bd 8c fd ff ff    	mov    %edi,-0x274(%rbp)
    12e2:	48 89 b5 80 fd ff ff 	mov    %rsi,-0x280(%rbp)
    12e9:	64 48 8b 04 25 28 00 	mov    %fs:0x28,%rax
    12f0:	00 00 
    12f2:	48 89 45 f8          	mov    %rax,-0x8(%rbp)
    12f6:	31 c0                	xor    %eax,%eax
    12f8:	83 bd 8c fd ff ff 02 	cmpl   $0x2,-0x274(%rbp)
    12ff:	7f 28                	jg     1329 <main+0x5c>
    1301:	48 8b 85 80 fd ff ff 	mov    -0x280(%rbp),%rax
    1308:	48 8b 00             	mov    (%rax),%rax
    130b:	48 89 c6             	mov    %rax,%rsi
    130e:	48 8d 3d 33 0d 00 00 	lea    0xd33(%rip),%rdi        # 2048 <_IO_stdin_used+0x48>
    1315:	b8 00 00 00 00       	mov    $0x0,%eax
    131a:	e8 e1 fd ff ff       	callq  1100 <printf@plt>
    131f:	bf 01 00 00 00       	mov    $0x1,%edi
    1324:	e8 07 fe ff ff       	callq  1130 <exit@plt>
    1329:	c7 85 9c fd ff ff 00 	movl   $0x0,-0x264(%rbp)
    1330:	00 00 00 
    1333:	c7 85 b0 fd ff ff 00 	movl   $0x0,-0x250(%rbp)
    133a:	00 00 00 
    133d:	c7 85 b4 fd ff ff 00 	movl   $0x0,-0x24c(%rbp)
    1344:	00 00 00 
    1347:	c7 85 b8 fd ff ff 02 	movl   $0x2,-0x248(%rbp)
    134e:	00 00 00 
    1351:	48 c7 85 c0 fd ff ff 	movq   $0x0,-0x240(%rbp)
    1358:	00 00 00 00 
    135c:	c7 85 d0 fd ff ff 02 	movl   $0x2,-0x230(%rbp)
    1363:	00 00 00 
    1366:	c7 85 d4 fd ff ff 01 	movl   $0x1,-0x22c(%rbp)
    136d:	00 00 00 
    1370:	c7 85 d8 fd ff ff 00 	movl   $0x0,-0x228(%rbp)
    1377:	00 00 00 
    137a:	48 8d 85 b0 fd ff ff 	lea    -0x250(%rbp),%rax
    1381:	48 89 85 e0 fd ff ff 	mov    %rax,-0x220(%rbp)
    1388:	c7 85 f0 fd ff ff 00 	movl   $0x0,-0x210(%rbp)
    138f:	00 00 00 
    1392:	c7 85 f4 fd ff ff 01 	movl   $0x1,-0x20c(%rbp)
    1399:	00 00 00 
    139c:	c7 85 f8 fd ff ff 02 	movl   $0x2,-0x208(%rbp)
    13a3:	00 00 00 
    13a6:	48 8d 85 d0 fd ff ff 	lea    -0x230(%rbp),%rax
    13ad:	48 89 85 00 fe ff ff 	mov    %rax,-0x200(%rbp)
    13b4:	c7 85 94 fd ff ff 00 	movl   $0x0,-0x26c(%rbp)
    13bb:	00 00 00 
    13be:	eb 70                	jmp    1430 <main+0x163>
    13c0:	8b 85 94 fd ff ff    	mov    -0x26c(%rbp),%eax
    13c6:	48 98                	cltq   
    13c8:	8b 95 94 fd ff ff    	mov    -0x26c(%rbp),%edx
    13ce:	89 94 85 30 fe ff ff 	mov    %edx,-0x1d0(%rbp,%rax,4)
    13d5:	c7 85 98 fd ff ff 00 	movl   $0x0,-0x268(%rbp)
    13dc:	00 00 00 
    13df:	eb 3f                	jmp    1420 <main+0x153>
    13e1:	8b 85 94 fd ff ff    	mov    -0x26c(%rbp),%eax
    13e7:	0f af 85 98 fd ff ff 	imul   -0x268(%rbp),%eax
    13ee:	89 c1                	mov    %eax,%ecx
    13f0:	8b 85 98 fd ff ff    	mov    -0x268(%rbp),%eax
    13f6:	48 63 f0             	movslq %eax,%rsi
    13f9:	8b 85 94 fd ff ff    	mov    -0x26c(%rbp),%eax
    13ff:	48 63 d0             	movslq %eax,%rdx
    1402:	48 89 d0             	mov    %rdx,%rax
    1405:	48 c1 e0 02          	shl    $0x2,%rax
    1409:	48 01 d0             	add    %rdx,%rax
    140c:	48 01 c0             	add    %rax,%rax
    140f:	48 01 f0             	add    %rsi,%rax
    1412:	89 8c 85 60 fe ff ff 	mov    %ecx,-0x1a0(%rbp,%rax,4)
    1419:	83 85 98 fd ff ff 01 	addl   $0x1,-0x268(%rbp)
    1420:	83 bd 98 fd ff ff 09 	cmpl   $0x9,-0x268(%rbp)
    1427:	7e b8                	jle    13e1 <main+0x114>
    1429:	83 85 94 fd ff ff 01 	addl   $0x1,-0x26c(%rbp)
    1430:	83 bd 94 fd ff ff 09 	cmpl   $0x9,-0x26c(%rbp)
    1437:	7e 87                	jle    13c0 <main+0xf3>
    1439:	48 8b 85 80 fd ff ff 	mov    -0x280(%rbp),%rax
    1440:	48 83 c0 10          	add    $0x10,%rax
    1444:	48 8b 00             	mov    (%rax),%rax
    1447:	48 89 c7             	mov    %rax,%rdi
    144a:	e8 91 fc ff ff       	callq  10e0 <strlen@plt>
    144f:	48 83 f8 20          	cmp    $0x20,%rax
    1453:	76 1b                	jbe    1470 <main+0x1a3>
    1455:	48 8d 3d 02 0c 00 00 	lea    0xc02(%rip),%rdi        # 205e <_IO_stdin_used+0x5e>
    145c:	b8 00 00 00 00       	mov    $0x0,%eax
    1461:	e8 9a fc ff ff       	callq  1100 <printf@plt>
    1466:	bf 01 00 00 00       	mov    $0x1,%edi
    146b:	e8 c0 fc ff ff       	callq  1130 <exit@plt>
    1470:	48 8b 85 80 fd ff ff 	mov    -0x280(%rbp),%rax
    1477:	48 83 c0 10          	add    $0x10,%rax
    147b:	48 8b 10             	mov    (%rax),%rdx
    147e:	48 8d 85 10 fe ff ff 	lea    -0x1f0(%rbp),%rax
    1485:	48 89 d6             	mov    %rdx,%rsi
    1488:	48 89 c7             	mov    %rax,%rdi
    148b:	e8 40 fc ff ff       	callq  10d0 <strcpy@plt>
    1490:	c7 85 a0 fd ff ff 00 	movl   $0x0,-0x260(%rbp)
    1497:	00 00 00 
    149a:	bf 04 00 00 00       	mov    $0x4,%edi
    149f:	e8 6c fc ff ff       	callq  1110 <malloc@plt>
    14a4:	48 89 85 a8 fd ff ff 	mov    %rax,-0x258(%rbp)
    14ab:	48 8b 85 80 fd ff ff 	mov    -0x280(%rbp),%rax
    14b2:	48 83 c0 08          	add    $0x8,%rax
    14b6:	48 8b 00             	mov    (%rax),%rax
    14b9:	48 89 c7             	mov    %rax,%rdi
    14bc:	e8 5f fc ff ff       	callq  1120 <atoi@plt>
    14c1:	89 85 f8 fd ff ff    	mov    %eax,-0x208(%rbp)
    14c7:	8b 85 f8 fd ff ff    	mov    -0x208(%rbp),%eax
    14cd:	89 85 f4 fd ff ff    	mov    %eax,-0x20c(%rbp)
    14d3:	8b 85 f4 fd ff ff    	mov    -0x20c(%rbp),%eax
    14d9:	89 85 f0 fd ff ff    	mov    %eax,-0x210(%rbp)
    14df:	8b 85 f0 fd ff ff    	mov    -0x210(%rbp),%eax
    14e5:	89 05 2d 2b 00 00    	mov    %eax,0x2b2d(%rip)        # 4018 <globalvar_uninit>
    14eb:	8b 05 27 2b 00 00    	mov    0x2b27(%rip),%eax        # 4018 <globalvar_uninit>
    14f1:	89 05 1d 2b 00 00    	mov    %eax,0x2b1d(%rip)        # 4014 <globalvar_init>
    14f7:	8b 15 17 2b 00 00    	mov    0x2b17(%rip),%edx        # 4014 <globalvar_init>
    14fd:	48 8b 85 a8 fd ff ff 	mov    -0x258(%rbp),%rax
    1504:	89 10                	mov    %edx,(%rax)
    1506:	48 8b 85 a8 fd ff ff 	mov    -0x258(%rbp),%rax
    150d:	8b 00                	mov    (%rax),%eax
    150f:	89 85 a0 fd ff ff    	mov    %eax,-0x260(%rbp)
    1515:	8b 85 a0 fd ff ff    	mov    -0x260(%rbp),%eax
    151b:	89 c6                	mov    %eax,%esi
    151d:	48 8d 3d 52 0b 00 00 	lea    0xb52(%rip),%rdi        # 2076 <_IO_stdin_used+0x76>
    1524:	b8 00 00 00 00       	mov    $0x0,%eax
    1529:	e8 d2 fb ff ff       	callq  1100 <printf@plt>
    152e:	48 8d 85 10 fe ff ff 	lea    -0x1f0(%rbp),%rax
    1535:	48 89 c6             	mov    %rax,%rsi
    1538:	48 8d 3d 41 0b 00 00 	lea    0xb41(%rip),%rdi        # 2080 <_IO_stdin_used+0x80>
    153f:	b8 00 00 00 00       	mov    $0x0,%eax
    1544:	e8 b7 fb ff ff       	callq  1100 <printf@plt>
    1549:	48 8d 85 f0 fd ff ff 	lea    -0x210(%rbp),%rax
    1550:	48 89 c7             	mov    %rax,%rdi
    1553:	e8 21 fd ff ff       	callq  1279 <myrecfunc>
    1558:	89 85 a4 fd ff ff    	mov    %eax,-0x25c(%rbp)
    155e:	8b 85 a4 fd ff ff    	mov    -0x25c(%rbp),%eax
    1564:	89 c6                	mov    %eax,%esi
    1566:	48 8d 3d 1f 0b 00 00 	lea    0xb1f(%rip),%rdi        # 208c <_IO_stdin_used+0x8c>
    156d:	b8 00 00 00 00       	mov    $0x0,%eax
    1572:	e8 89 fb ff ff       	callq  1100 <printf@plt>
    1577:	8b 85 a0 fd ff ff    	mov    -0x260(%rbp),%eax
    157d:	89 c7                	mov    %eax,%edi
    157f:	e8 a5 fc ff ff       	callq  1229 <hello>
    1584:	48 8b 85 a8 fd ff ff 	mov    -0x258(%rbp),%rax
    158b:	48 89 c7             	mov    %rax,%rdi
    158e:	e8 2d fb ff ff       	callq  10c0 <free@plt>
    1593:	b8 00 00 00 00       	mov    $0x0,%eax
    1598:	48 8b 4d f8          	mov    -0x8(%rbp),%rcx
    159c:	64 48 33 0c 25 28 00 	xor    %fs:0x28,%rcx
    15a3:	00 00 
    15a5:	74 05                	je     15ac <main+0x2df>
    15a7:	e8 44 fb ff ff       	callq  10f0 <__stack_chk_fail@plt>
    15ac:	c9                   	leaveq 
    15ad:	c3                   	retq   
    15ae:	66 90                	xchg   %ax,%ax

00000000000015b0 <__libc_csu_init>:
    15b0:	f3 0f 1e fa          	endbr64 
    15b4:	41 57                	push   %r15
    15b6:	4c 8d 3d c3 27 00 00 	lea    0x27c3(%rip),%r15        # 3d80 <__frame_dummy_init_array_entry>
    15bd:	41 56                	push   %r14
    15bf:	49 89 d6             	mov    %rdx,%r14
    15c2:	41 55                	push   %r13
    15c4:	49 89 f5             	mov    %rsi,%r13
    15c7:	41 54                	push   %r12
    15c9:	41 89 fc             	mov    %edi,%r12d
    15cc:	55                   	push   %rbp
    15cd:	48 8d 2d b4 27 00 00 	lea    0x27b4(%rip),%rbp        # 3d88 <__do_global_dtors_aux_fini_array_entry>
    15d4:	53                   	push   %rbx
    15d5:	4c 29 fd             	sub    %r15,%rbp
    15d8:	48 83 ec 08          	sub    $0x8,%rsp
    15dc:	e8 1f fa ff ff       	callq  1000 <_init>
    15e1:	48 c1 fd 03          	sar    $0x3,%rbp
    15e5:	74 1f                	je     1606 <__libc_csu_init+0x56>
    15e7:	31 db                	xor    %ebx,%ebx
    15e9:	0f 1f 80 00 00 00 00 	nopl   0x0(%rax)
    15f0:	4c 89 f2             	mov    %r14,%rdx
    15f3:	4c 89 ee             	mov    %r13,%rsi
    15f6:	44 89 e7             	mov    %r12d,%edi
    15f9:	41 ff 14 df          	callq  *(%r15,%rbx,8)
    15fd:	48 83 c3 01          	add    $0x1,%rbx
    1601:	48 39 dd             	cmp    %rbx,%rbp
    1604:	75 ea                	jne    15f0 <__libc_csu_init+0x40>
    1606:	48 83 c4 08          	add    $0x8,%rsp
    160a:	5b                   	pop    %rbx
    160b:	5d                   	pop    %rbp
    160c:	41 5c                	pop    %r12
    160e:	41 5d                	pop    %r13
    1610:	41 5e                	pop    %r14
    1612:	41 5f                	pop    %r15
    1614:	c3                   	retq   
    1615:	66 66 2e 0f 1f 84 00 	data16 nopw %cs:0x0(%rax,%rax,1)
    161c:	00 00 00 00 

0000000000001620 <__libc_csu_fini>:
    1620:	f3 0f 1e fa          	endbr64 
    1624:	c3                   	retq   

Disassembly of section .fini:

0000000000001628 <_fini>:
    1628:	f3 0f 1e fa          	endbr64 
    162c:	48 83 ec 08          	sub    $0x8,%rsp
    1630:	48 83 c4 08          	add    $0x8,%rsp
    1634:	c3                   	retq   
