
p0:     file format elf64-x86-64


Disassembly of section .init:

0000000000001000 <_init>:
    1000:	f3 0f 1e fa          	endbr64 
    1004:	48 83 ec 08          	sub    $0x8,%rsp
    1008:	48 8b 05 d9 2f 00 00 	mov    0x2fd9(%rip),%rax        # 3fe8 <__gmon_start__>
    100f:	48 85 c0             	test   %rax,%rax
    1012:	74 02                	je     1016 <_init+0x16>
    1014:	ff d0                	callq  *%rax
    1016:	48 83 c4 08          	add    $0x8,%rsp
    101a:	c3                   	retq   

Disassembly of section .plt:

0000000000001020 <.plt>:
    1020:	ff 35 92 2f 00 00    	pushq  0x2f92(%rip)        # 3fb8 <_GLOBAL_OFFSET_TABLE_+0x8>
    1026:	f2 ff 25 93 2f 00 00 	bnd jmpq *0x2f93(%rip)        # 3fc0 <_GLOBAL_OFFSET_TABLE_+0x10>
    102d:	0f 1f 00             	nopl   (%rax)
    1030:	f3 0f 1e fa          	endbr64 
    1034:	68 00 00 00 00       	pushq  $0x0
    1039:	f2 e9 e1 ff ff ff    	bnd jmpq 1020 <.plt>
    103f:	90                   	nop
    1040:	f3 0f 1e fa          	endbr64 
    1044:	68 01 00 00 00       	pushq  $0x1
    1049:	f2 e9 d1 ff ff ff    	bnd jmpq 1020 <.plt>
    104f:	90                   	nop

Disassembly of section .plt.got:

0000000000001050 <__cxa_finalize@plt>:
    1050:	f3 0f 1e fa          	endbr64 
    1054:	f2 ff 25 9d 2f 00 00 	bnd jmpq *0x2f9d(%rip)        # 3ff8 <__cxa_finalize@GLIBC_2.2.5>
    105b:	0f 1f 44 00 00       	nopl   0x0(%rax,%rax,1)

Disassembly of section .plt.sec:

0000000000001060 <__stack_chk_fail@plt>:
    1060:	f3 0f 1e fa          	endbr64 
    1064:	f2 ff 25 5d 2f 00 00 	bnd jmpq *0x2f5d(%rip)        # 3fc8 <__stack_chk_fail@GLIBC_2.4>
    106b:	0f 1f 44 00 00       	nopl   0x0(%rax,%rax,1)

0000000000001070 <printf@plt>:
    1070:	f3 0f 1e fa          	endbr64 
    1074:	f2 ff 25 55 2f 00 00 	bnd jmpq *0x2f55(%rip)        # 3fd0 <printf@GLIBC_2.2.5>
    107b:	0f 1f 44 00 00       	nopl   0x0(%rax,%rax,1)

Disassembly of section .text:

0000000000001080 <_start>:
    1080:	f3 0f 1e fa          	endbr64 
    1084:	31 ed                	xor    %ebp,%ebp
    1086:	49 89 d1             	mov    %rdx,%r9
    1089:	5e                   	pop    %rsi
    108a:	48 89 e2             	mov    %rsp,%rdx
    108d:	48 83 e4 f0          	and    $0xfffffffffffffff0,%rsp
    1091:	50                   	push   %rax
    1092:	54                   	push   %rsp
    1093:	4c 8d 05 86 02 00 00 	lea    0x286(%rip),%r8        # 1320 <__libc_csu_fini>
    109a:	48 8d 0d 0f 02 00 00 	lea    0x20f(%rip),%rcx        # 12b0 <__libc_csu_init>
    10a1:	48 8d 3d c1 00 00 00 	lea    0xc1(%rip),%rdi        # 1169 <main>
    10a8:	ff 15 32 2f 00 00    	callq  *0x2f32(%rip)        # 3fe0 <__libc_start_main@GLIBC_2.2.5>
    10ae:	f4                   	hlt    
    10af:	90                   	nop

00000000000010b0 <deregister_tm_clones>:
    10b0:	48 8d 3d 59 2f 00 00 	lea    0x2f59(%rip),%rdi        # 4010 <__TMC_END__>
    10b7:	48 8d 05 52 2f 00 00 	lea    0x2f52(%rip),%rax        # 4010 <__TMC_END__>
    10be:	48 39 f8             	cmp    %rdi,%rax
    10c1:	74 15                	je     10d8 <deregister_tm_clones+0x28>
    10c3:	48 8b 05 0e 2f 00 00 	mov    0x2f0e(%rip),%rax        # 3fd8 <_ITM_deregisterTMCloneTable>
    10ca:	48 85 c0             	test   %rax,%rax
    10cd:	74 09                	je     10d8 <deregister_tm_clones+0x28>
    10cf:	ff e0                	jmpq   *%rax
    10d1:	0f 1f 80 00 00 00 00 	nopl   0x0(%rax)
    10d8:	c3                   	retq   
    10d9:	0f 1f 80 00 00 00 00 	nopl   0x0(%rax)

00000000000010e0 <register_tm_clones>:
    10e0:	48 8d 3d 29 2f 00 00 	lea    0x2f29(%rip),%rdi        # 4010 <__TMC_END__>
    10e7:	48 8d 35 22 2f 00 00 	lea    0x2f22(%rip),%rsi        # 4010 <__TMC_END__>
    10ee:	48 29 fe             	sub    %rdi,%rsi
    10f1:	48 89 f0             	mov    %rsi,%rax
    10f4:	48 c1 ee 3f          	shr    $0x3f,%rsi
    10f8:	48 c1 f8 03          	sar    $0x3,%rax
    10fc:	48 01 c6             	add    %rax,%rsi
    10ff:	48 d1 fe             	sar    %rsi
    1102:	74 14                	je     1118 <register_tm_clones+0x38>
    1104:	48 8b 05 e5 2e 00 00 	mov    0x2ee5(%rip),%rax        # 3ff0 <_ITM_registerTMCloneTable>
    110b:	48 85 c0             	test   %rax,%rax
    110e:	74 08                	je     1118 <register_tm_clones+0x38>
    1110:	ff e0                	jmpq   *%rax
    1112:	66 0f 1f 44 00 00    	nopw   0x0(%rax,%rax,1)
    1118:	c3                   	retq   
    1119:	0f 1f 80 00 00 00 00 	nopl   0x0(%rax)

0000000000001120 <__do_global_dtors_aux>:
    1120:	f3 0f 1e fa          	endbr64 
    1124:	80 3d e5 2e 00 00 00 	cmpb   $0x0,0x2ee5(%rip)        # 4010 <__TMC_END__>
    112b:	75 2b                	jne    1158 <__do_global_dtors_aux+0x38>
    112d:	55                   	push   %rbp
    112e:	48 83 3d c2 2e 00 00 	cmpq   $0x0,0x2ec2(%rip)        # 3ff8 <__cxa_finalize@GLIBC_2.2.5>
    1135:	00 
    1136:	48 89 e5             	mov    %rsp,%rbp
    1139:	74 0c                	je     1147 <__do_global_dtors_aux+0x27>
    113b:	48 8b 3d c6 2e 00 00 	mov    0x2ec6(%rip),%rdi        # 4008 <__dso_handle>
    1142:	e8 09 ff ff ff       	callq  1050 <__cxa_finalize@plt>
    1147:	e8 64 ff ff ff       	callq  10b0 <deregister_tm_clones>
    114c:	c6 05 bd 2e 00 00 01 	movb   $0x1,0x2ebd(%rip)        # 4010 <__TMC_END__>
    1153:	5d                   	pop    %rbp
    1154:	c3                   	retq   
    1155:	0f 1f 00             	nopl   (%rax)
    1158:	c3                   	retq   
    1159:	0f 1f 80 00 00 00 00 	nopl   0x0(%rax)

0000000000001160 <frame_dummy>:
    1160:	f3 0f 1e fa          	endbr64 
    1164:	e9 77 ff ff ff       	jmpq   10e0 <register_tm_clones>

0000000000001169 <main>:
    1169:	f3 0f 1e fa          	endbr64 
    116d:	55                   	push   %rbp
    116e:	48 89 e5             	mov    %rsp,%rbp
    1171:	48 83 ec 40          	sub    $0x40,%rsp
    1175:	64 48 8b 04 25 28 00 	mov    %fs:0x28,%rax
    117c:	00 00 
    117e:	48 89 45 f8          	mov    %rax,-0x8(%rbp)
    1182:	31 c0                	xor    %eax,%eax
    1184:	c7 45 c8 00 00 00 00 	movl   $0x0,-0x38(%rbp)
    118b:	eb 10                	jmp    119d <main+0x34>
    118d:	8b 45 c8             	mov    -0x38(%rbp),%eax
    1190:	48 98                	cltq   
    1192:	8b 55 c8             	mov    -0x38(%rbp),%edx
    1195:	89 54 85 d0          	mov    %edx,-0x30(%rbp,%rax,4)
    1199:	83 45 c8 01          	addl   $0x1,-0x38(%rbp)
    119d:	83 7d c8 09          	cmpl   $0x9,-0x38(%rbp)
    11a1:	7e ea                	jle    118d <main+0x24>
    11a3:	48 8d 45 d0          	lea    -0x30(%rbp),%rax
    11a7:	be 0a 00 00 00       	mov    $0xa,%esi
    11ac:	48 89 c7             	mov    %rax,%rdi
    11af:	e8 4a 00 00 00       	callq  11fe <reverse_arr>
    11b4:	c7 45 cc 00 00 00 00 	movl   $0x0,-0x34(%rbp)
    11bb:	eb 20                	jmp    11dd <main+0x74>
    11bd:	8b 45 cc             	mov    -0x34(%rbp),%eax
    11c0:	48 98                	cltq   
    11c2:	8b 44 85 d0          	mov    -0x30(%rbp,%rax,4),%eax
    11c6:	89 c6                	mov    %eax,%esi
    11c8:	48 8d 3d 35 0e 00 00 	lea    0xe35(%rip),%rdi        # 2004 <_IO_stdin_used+0x4>
    11cf:	b8 00 00 00 00       	mov    $0x0,%eax
    11d4:	e8 97 fe ff ff       	callq  1070 <printf@plt>
    11d9:	83 45 cc 01          	addl   $0x1,-0x34(%rbp)
    11dd:	83 7d cc 09          	cmpl   $0x9,-0x34(%rbp)
    11e1:	7e da                	jle    11bd <main+0x54>
    11e3:	b8 00 00 00 00       	mov    $0x0,%eax
    11e8:	48 8b 4d f8          	mov    -0x8(%rbp),%rcx
    11ec:	64 48 33 0c 25 28 00 	xor    %fs:0x28,%rcx
    11f3:	00 00 
    11f5:	74 05                	je     11fc <main+0x93>
    11f7:	e8 64 fe ff ff       	callq  1060 <__stack_chk_fail@plt>
    11fc:	c9                   	leaveq 
    11fd:	c3                   	retq   

00000000000011fe <reverse_arr>:
    11fe:	f3 0f 1e fa          	endbr64 
    1202:	55                   	push   %rbp
    1203:	48 89 e5             	mov    %rsp,%rbp
    1206:	48 83 ec 20          	sub    $0x20,%rsp
    120a:	48 89 7d e8          	mov    %rdi,-0x18(%rbp)
    120e:	89 75 e4             	mov    %esi,-0x1c(%rbp)
    1211:	8b 45 e4             	mov    -0x1c(%rbp),%eax
    1214:	83 e0 01             	and    $0x1,%eax
    1217:	85 c0                	test   %eax,%eax
    1219:	0f 95 c0             	setne  %al
    121c:	88 45 f7             	mov    %al,-0x9(%rbp)
    121f:	c7 45 f8 00 00 00 00 	movl   $0x0,-0x8(%rbp)
    1226:	8b 45 e4             	mov    -0x1c(%rbp),%eax
    1229:	83 e8 01             	sub    $0x1,%eax
    122c:	89 45 fc             	mov    %eax,-0x4(%rbp)
    122f:	eb 3b                	jmp    126c <reverse_arr+0x6e>
    1231:	8b 45 fc             	mov    -0x4(%rbp),%eax
    1234:	48 98                	cltq   
    1236:	48 8d 14 85 00 00 00 	lea    0x0(,%rax,4),%rdx
    123d:	00 
    123e:	48 8b 45 e8          	mov    -0x18(%rbp),%rax
    1242:	48 01 c2             	add    %rax,%rdx
    1245:	8b 45 f8             	mov    -0x8(%rbp),%eax
    1248:	48 98                	cltq   
    124a:	48 8d 0c 85 00 00 00 	lea    0x0(,%rax,4),%rcx
    1251:	00 
    1252:	48 8b 45 e8          	mov    -0x18(%rbp),%rax
    1256:	48 01 c8             	add    %rcx,%rax
    1259:	48 89 d6             	mov    %rdx,%rsi
    125c:	48 89 c7             	mov    %rax,%rdi
    125f:	e8 14 00 00 00       	callq  1278 <swap>
    1264:	83 45 f8 01          	addl   $0x1,-0x8(%rbp)
    1268:	83 6d fc 01          	subl   $0x1,-0x4(%rbp)
    126c:	8b 45 f8             	mov    -0x8(%rbp),%eax
    126f:	3b 45 fc             	cmp    -0x4(%rbp),%eax
    1272:	7c bd                	jl     1231 <reverse_arr+0x33>
    1274:	90                   	nop
    1275:	90                   	nop
    1276:	c9                   	leaveq 
    1277:	c3                   	retq   

0000000000001278 <swap>:
    1278:	f3 0f 1e fa          	endbr64 
    127c:	55                   	push   %rbp
    127d:	48 89 e5             	mov    %rsp,%rbp
    1280:	48 89 7d e8          	mov    %rdi,-0x18(%rbp)
    1284:	48 89 75 e0          	mov    %rsi,-0x20(%rbp)
    1288:	48 8b 45 e8          	mov    -0x18(%rbp),%rax
    128c:	8b 00                	mov    (%rax),%eax
    128e:	89 45 fc             	mov    %eax,-0x4(%rbp)
    1291:	48 8b 45 e0          	mov    -0x20(%rbp),%rax
    1295:	8b 10                	mov    (%rax),%edx
    1297:	48 8b 45 e8          	mov    -0x18(%rbp),%rax
    129b:	89 10                	mov    %edx,(%rax)
    129d:	48 8b 45 e0          	mov    -0x20(%rbp),%rax
    12a1:	8b 55 fc             	mov    -0x4(%rbp),%edx
    12a4:	89 10                	mov    %edx,(%rax)
    12a6:	90                   	nop
    12a7:	5d                   	pop    %rbp
    12a8:	c3                   	retq   
    12a9:	0f 1f 80 00 00 00 00 	nopl   0x0(%rax)

00000000000012b0 <__libc_csu_init>:
    12b0:	f3 0f 1e fa          	endbr64 
    12b4:	41 57                	push   %r15
    12b6:	4c 8d 3d f3 2a 00 00 	lea    0x2af3(%rip),%r15        # 3db0 <__frame_dummy_init_array_entry>
    12bd:	41 56                	push   %r14
    12bf:	49 89 d6             	mov    %rdx,%r14
    12c2:	41 55                	push   %r13
    12c4:	49 89 f5             	mov    %rsi,%r13
    12c7:	41 54                	push   %r12
    12c9:	41 89 fc             	mov    %edi,%r12d
    12cc:	55                   	push   %rbp
    12cd:	48 8d 2d e4 2a 00 00 	lea    0x2ae4(%rip),%rbp        # 3db8 <__do_global_dtors_aux_fini_array_entry>
    12d4:	53                   	push   %rbx
    12d5:	4c 29 fd             	sub    %r15,%rbp
    12d8:	48 83 ec 08          	sub    $0x8,%rsp
    12dc:	e8 1f fd ff ff       	callq  1000 <_init>
    12e1:	48 c1 fd 03          	sar    $0x3,%rbp
    12e5:	74 1f                	je     1306 <__libc_csu_init+0x56>
    12e7:	31 db                	xor    %ebx,%ebx
    12e9:	0f 1f 80 00 00 00 00 	nopl   0x0(%rax)
    12f0:	4c 89 f2             	mov    %r14,%rdx
    12f3:	4c 89 ee             	mov    %r13,%rsi
    12f6:	44 89 e7             	mov    %r12d,%edi
    12f9:	41 ff 14 df          	callq  *(%r15,%rbx,8)
    12fd:	48 83 c3 01          	add    $0x1,%rbx
    1301:	48 39 dd             	cmp    %rbx,%rbp
    1304:	75 ea                	jne    12f0 <__libc_csu_init+0x40>
    1306:	48 83 c4 08          	add    $0x8,%rsp
    130a:	5b                   	pop    %rbx
    130b:	5d                   	pop    %rbp
    130c:	41 5c                	pop    %r12
    130e:	41 5d                	pop    %r13
    1310:	41 5e                	pop    %r14
    1312:	41 5f                	pop    %r15
    1314:	c3                   	retq   
    1315:	66 66 2e 0f 1f 84 00 	data16 nopw %cs:0x0(%rax,%rax,1)
    131c:	00 00 00 00 

0000000000001320 <__libc_csu_fini>:
    1320:	f3 0f 1e fa          	endbr64 
    1324:	c3                   	retq   

Disassembly of section .fini:

0000000000001328 <_fini>:
    1328:	f3 0f 1e fa          	endbr64 
    132c:	48 83 ec 08          	sub    $0x8,%rsp
    1330:	48 83 c4 08          	add    $0x8,%rsp
    1334:	c3                   	retq   
